target datalayout = "e-m:e-p270:32:32-p271:32:32-p272:64:64-i64:64-i128:128-f80:128-n8:16:32:64-S128"
target triple = "x86_64-pc-linux-gnu"

@hf_gryphon_reserved = internal global i32 0, align 4
@hf_gryphon_desc_flags = internal global i32 0, align 4
@hf_gryphon_desc_flags_program = internal global i32 0, align 4
@hf_gryphon_desc_handle = internal global i32 0, align 4
@ett_gryphon_flags = internal global i32 0, align 4

; Function Attrs: null_pointer_is_valid sspstrong uwtable
define internal i32 @resp_desc(ptr noundef %0, i32 noundef %1, ptr noundef %2) #0 {
  %4 = alloca ptr, align 8
  %5 = alloca i32, align 4
  %6 = alloca ptr, align 8
  %7 = alloca ptr, align 8
  %8 = alloca ptr, align 8
  store ptr %0, ptr %4, align 8
  store i32 %1, ptr %5, align 4
  store ptr %2, ptr %6, align 8
  call void @llvm.lifetime.start.p0(i64 8, ptr %7) #7
  call void @llvm.lifetime.start.p0(i64 8, ptr %8) #7
  %9 = load ptr, ptr %6, align 8
  %10 = load i32, ptr @hf_gryphon_desc_flags, align 4
  %11 = load ptr, ptr %4, align 8
  %12 = load i32, ptr %5, align 4
  %13 = call ptr @proto_tree_add_item(ptr noundef %9, i32 noundef %10, ptr noundef %11, i32 noundef %12, i32 noundef 1, i32 noundef 0)
  store ptr %13, ptr %7, align 8
  %14 = load ptr, ptr %7, align 8
  %15 = load i32, ptr @ett_gryphon_flags, align 4
  %16 = call ptr @proto_item_add_subtree(ptr noundef %14, i32 noundef %15)
  store ptr %16, ptr %8, align 8
  %17 = load ptr, ptr %8, align 8
  %18 = load i32, ptr @hf_gryphon_desc_flags_program, align 4
  %19 = load ptr, ptr %4, align 8
  %20 = load i32, ptr %5, align 4
  %21 = call ptr @proto_tree_add_item(ptr noundef %17, i32 noundef %18, ptr noundef %19, i32 noundef %20, i32 noundef 1, i32 noundef 0)
  %22 = load ptr, ptr %6, align 8
  %23 = load i32, ptr @hf_gryphon_desc_handle, align 4
  %24 = load ptr, ptr %4, align 8
  %25 = load i32, ptr %5, align 4
  %26 = call ptr @proto_tree_add_item(ptr noundef %22, i32 noundef %23, ptr noundef %24, i32 noundef %25, i32 noundef 1, i32 noundef 0)
  %27 = load ptr, ptr %6, align 8
  %28 = load i32, ptr @hf_gryphon_reserved, align 4
  %29 = load ptr, ptr %4, align 8
  %30 = load i32, ptr %5, align 4
  %31 = add i32 %30, 2
  %32 = call ptr @proto_tree_add_item(ptr noundef %27, i32 noundef %28, ptr noundef %29, i32 noundef %31, i32 noundef 2, i32 noundef 0)
  %33 = load i32, ptr %5, align 4
  %34 = add i32 %33, 4
  store i32 %34, ptr %5, align 4
  %35 = load i32, ptr %5, align 4
  call void @llvm.lifetime.end.p0(i64 8, ptr %8) #7
  call void @llvm.lifetime.end.p0(i64 8, ptr %7) #7
  ret i32 %35
}