; Function Attrs: null_pointer_is_valid sspstrong uwtable
define internal fastcc void @resp_desc(ptr noundef %0, ptr noundef %1) unnamed_addr #0 {
  %3 = load i32, ptr @hf_gryphon_desc_flags, align 4
  %4 = tail call ptr @proto_tree_add_item(ptr noundef %1, i32 noundef %3, ptr noundef %0, i32 noundef 16, i32 noundef 1, i32 noundef 0)
  %5 = load i32, ptr @ett_gryphon_flags, align 4
  %6 = tail call ptr @proto_item_add_subtree(ptr noundef %4, i32 noundef %5)
  %7 = load i32, ptr @hf_gryphon_desc_flags_program, align 4
  %8 = tail call ptr @proto_tree_add_item(ptr noundef %6, i32 noundef %7, ptr noundef %0, i32 noundef 16, i32 noundef 1, i32 noundef 0)
  %9 = load i32, ptr @hf_gryphon_desc_handle, align 4
  %10 = tail call ptr @proto_tree_add_item(ptr noundef %1, i32 noundef %9, ptr noundef %0, i32 noundef 16, i32 noundef 1, i32 noundef 0)
  %11 = load i32, ptr @hf_gryphon_reserved, align 4
  %12 = tail call ptr @proto_tree_add_item(ptr noundef %1, i32 noundef %11, ptr noundef %0, i32 noundef 18, i32 noundef 2, i32 noundef 0)
  ret void
}